target datalayout = "e-m:e-p270:32:32-p271:32:32-p272:64:64-i64:64-i128:128-f80:128-n8:16:32:64-S128"
target triple = "x86_64-pc-linux-gnu"

%struct.Vector2 = type { float, float }

; Function Attrs: nounwind uwtable
define zeroext i1 @CheckCollisionPointLine(<2 x float> %0, <2 x float> %1, <2 x float> %2, i32 noundef %3) #0 {
  %5 = alloca %struct.Vector2, align 4
  %6 = alloca %struct.Vector2, align 4
  %7 = alloca %struct.Vector2, align 4
  %8 = alloca i32, align 4
  %9 = alloca i8, align 1
  %10 = alloca float, align 4
  %11 = alloca float, align 4
  %12 = alloca float, align 4
  %13 = alloca float, align 4
  %14 = alloca float, align 4
  store <2 x float> %0, ptr %5, align 4
  store <2 x float> %1, ptr %6, align 4
  store <2 x float> %2, ptr %7, align 4
  store i32 %3, ptr %8, align 4
  call void @llvm.lifetime.start.p0(i64 1, ptr %9) #8
  store i8 0, ptr %9, align 1
  call void @llvm.lifetime.start.p0(i64 4, ptr %10) #8
  %15 = getelementptr inbounds nuw %struct.Vector2, ptr %5, i32 0, i32 0
  %16 = load float, ptr %15, align 4
  %17 = getelementptr inbounds nuw %struct.Vector2, ptr %6, i32 0, i32 0
  %18 = load float, ptr %17, align 4
  %19 = fsub float %16, %18
  store float %19, ptr %10, align 4
  call void @llvm.lifetime.start.p0(i64 4, ptr %11) #8
  %20 = getelementptr inbounds nuw %struct.Vector2, ptr %5, i32 0, i32 1
  %21 = load float, ptr %20, align 4
  %22 = getelementptr inbounds nuw %struct.Vector2, ptr %6, i32 0, i32 1
  %23 = load float, ptr %22, align 4
  %24 = fsub float %21, %23
  store float %24, ptr %11, align 4
  call void @llvm.lifetime.start.p0(i64 4, ptr %12) #8
  %25 = getelementptr inbounds nuw %struct.Vector2, ptr %7, i32 0, i32 0
  %26 = load float, ptr %25, align 4
  %27 = getelementptr inbounds nuw %struct.Vector2, ptr %6, i32 0, i32 0
  %28 = load float, ptr %27, align 4
  %29 = fsub float %26, %28
  store float %29, ptr %12, align 4
  call void @llvm.lifetime.start.p0(i64 4, ptr %13) #8
  %30 = getelementptr inbounds nuw %struct.Vector2, ptr %7, i32 0, i32 1
  %31 = load float, ptr %30, align 4
  %32 = getelementptr inbounds nuw %struct.Vector2, ptr %6, i32 0, i32 1
  %33 = load float, ptr %32, align 4
  %34 = fsub float %31, %33
  store float %34, ptr %13, align 4
  call void @llvm.lifetime.start.p0(i64 4, ptr %14) #8
  %35 = load float, ptr %10, align 4
  %36 = load float, ptr %13, align 4
  %37 = load float, ptr %11, align 4
  %38 = load float, ptr %12, align 4
  %39 = fmul float %37, %38
  %40 = fneg float %39
  %41 = call float @llvm.fmuladd.f32(float %35, float %36, float %40)
  store float %41, ptr %14, align 4
  %42 = load float, ptr %14, align 4
  %43 = call float @llvm.fabs.f32(float %42)
  %44 = load i32, ptr %8, align 4
  %45 = sitofp i32 %44 to float
  %46 = load float, ptr %12, align 4
  %47 = call float @llvm.fabs.f32(float %46)
  %48 = load float, ptr %13, align 4
  %49 = call float @llvm.fabs.f32(float %48)
  %50 = call float @llvm.maxnum.f32(float %47, float %49)
  %51 = fmul float %45, %50
  %52 = fcmp olt float %43, %51
  br i1 %52, label %53, label %134

53:                                               ; preds = %4
  %54 = load float, ptr %12, align 4
  %55 = call float @llvm.fabs.f32(float %54)
  %56 = load float, ptr %13, align 4
  %57 = call float @llvm.fabs.f32(float %56)
  %58 = fcmp oge float %55, %57
  br i1 %58, label %59, label %96

59:                                               ; preds = %53
  %60 = load float, ptr %12, align 4
  %61 = fcmp ogt float %60, 0.000000e+00
  br i1 %61, label %62, label %77

62:                                               ; preds = %59
  %63 = getelementptr inbounds nuw %struct.Vector2, ptr %6, i32 0, i32 0
  %64 = load float, ptr %63, align 4
  %65 = getelementptr inbounds nuw %struct.Vector2, ptr %5, i32 0, i32 0
  %66 = load float, ptr %65, align 4
  %67 = fcmp ole float %64, %66
  br i1 %67, label %68, label %74

68:                                               ; preds = %62
  %69 = getelementptr inbounds nuw %struct.Vector2, ptr %5, i32 0, i32 0
  %70 = load float, ptr %69, align 4
  %71 = getelementptr inbounds nuw %struct.Vector2, ptr %7, i32 0, i32 0
  %72 = load float, ptr %71, align 4
  %73 = fcmp ole float %70, %72
  br label %74

74:                                               ; preds = %68, %62
  %75 = phi i1 [ false, %62 ], [ %73, %68 ]
  %76 = zext i1 %75 to i32
  br label %92

77:                                               ; preds = %59
  %78 = getelementptr inbounds nuw %struct.Vector2, ptr %7, i32 0, i32 0
  %79 = load float, ptr %78, align 4
  %80 = getelementptr inbounds nuw %struct.Vector2, ptr %5, i32 0, i32 0
  %81 = load float, ptr %80, align 4
  %82 = fcmp ole float %79, %81
  br i1 %82, label %83, label %89

83:                                               ; preds = %77
  %84 = getelementptr inbounds nuw %struct.Vector2, ptr %5, i32 0, i32 0
  %85 = load float, ptr %84, align 4
  %86 = getelementptr inbounds nuw %struct.Vector2, ptr %6, i32 0, i32 0
  %87 = load float, ptr %86, align 4
  %88 = fcmp ole float %85, %87
  br label %89

89:                                               ; preds = %83, %77
  %90 = phi i1 [ false, %77 ], [ %88, %83 ]
  %91 = zext i1 %90 to i32
  br label %92

92:                                               ; preds = %89, %74
  %93 = phi i32 [ %76, %74 ], [ %91, %89 ]
  %94 = icmp ne i32 %93, 0
  %95 = zext i1 %94 to i8
  store i8 %95, ptr %9, align 1
  br label %133

96:                                               ; preds = %53
  %97 = load float, ptr %13, align 4
  %98 = fcmp ogt float %97, 0.000000e+00
  br i1 %98, label %99, label %114

99:                                               ; preds = %96
  %100 = getelementptr inbounds nuw %struct.Vector2, ptr %6, i32 0, i32 1
  %101 = load float, ptr %100, align 4
  %102 = getelementptr inbounds nuw %struct.Vector2, ptr %5, i32 0, i32 1
  %103 = load float, ptr %102, align 4
  %104 = fcmp ole float %101, %103
  br i1 %104, label %105, label %111

105:                                              ; preds = %99
  %106 = getelementptr inbounds nuw %struct.Vector2, ptr %5, i32 0, i32 1
  %107 = load float, ptr %106, align 4
  %108 = getelementptr inbounds nuw %struct.Vector2, ptr %7, i32 0, i32 1
  %109 = load float, ptr %108, align 4
  %110 = fcmp ole float %107, %109
  br label %111

111:                                              ; preds = %105, %99
  %112 = phi i1 [ false, %99 ], [ %110, %105 ]
  %113 = zext i1 %112 to i32
  br label %129

114:                                              ; preds = %96
  %115 = getelementptr inbounds nuw %struct.Vector2, ptr %7, i32 0, i32 1
  %116 = load float, ptr %115, align 4
  %117 = getelementptr inbounds nuw %struct.Vector2, ptr %5, i32 0, i32 1
  %118 = load float, ptr %117, align 4
  %119 = fcmp ole float %116, %118
  br i1 %119, label %120, label %126

120:                                              ; preds = %114
  %121 = getelementptr inbounds nuw %struct.Vector2, ptr %5, i32 0, i32 1
  %122 = load float, ptr %121, align 4
  %123 = getelementptr inbounds nuw %struct.Vector2, ptr %6, i32 0, i32 1
  %124 = load float, ptr %123, align 4
  %125 = fcmp ole float %122, %124
  br label %126

126:                                              ; preds = %120, %114
  %127 = phi i1 [ false, %114 ], [ %125, %120 ]
  %128 = zext i1 %127 to i32
  br label %129

129:                                              ; preds = %126, %111
  %130 = phi i32 [ %113, %111 ], [ %128, %126 ]
  %131 = icmp ne i32 %130, 0
  %132 = zext i1 %131 to i8
  store i8 %132, ptr %9, align 1
  br label %133

133:                                              ; preds = %129, %92
  br label %134

134:                                              ; preds = %133, %4
  %135 = load i8, ptr %9, align 1, !range !3, !noundef !4
  %136 = trunc i8 %135 to i1
  call void @llvm.lifetime.end.p0(i64 4, ptr %14) #8
  call void @llvm.lifetime.end.p0(i64 4, ptr %13) #8
  call void @llvm.lifetime.end.p0(i64 4, ptr %12) #8
  call void @llvm.lifetime.end.p0(i64 4, ptr %11) #8
  call void @llvm.lifetime.end.p0(i64 4, ptr %10) #8
  call void @llvm.lifetime.end.p0(i64 1, ptr %9) #8
  ret i1 %136
}