; Function Attrs: mustprogress nofree norecurse nosync nounwind willreturn memory(none) uwtable
define zeroext i1 @CheckCollisionPointLine(<2 x float> %0, <2 x float> %1, <2 x float> %2, i32 noundef %3) local_unnamed_addr #11 {
  %.sroa.033.0.vec.extract = extractelement <2 x float> %0, i64 0
  %.sroa.020.0.vec.extract = extractelement <2 x float> %1, i64 0
  %5 = fsub <2 x float> %0, %1
  %6 = extractelement <2 x float> %5, i64 0
  %.sroa.033.4.vec.extract = extractelement <2 x float> %0, i64 1
  %.sroa.020.4.vec.extract = extractelement <2 x float> %1, i64 1
  %7 = fsub float %.sroa.033.4.vec.extract, %.sroa.020.4.vec.extract
  %.sroa.0.0.vec.extract = extractelement <2 x float> %2, i64 0
  %8 = fsub <2 x float> %2, %1
  %9 = extractelement <2 x float> %8, i64 0
  %.sroa.0.4.vec.extract = extractelement <2 x float> %2, i64 1
  %10 = fsub float %.sroa.0.4.vec.extract, %.sroa.020.4.vec.extract
  %11 = fneg float %9
  %12 = fmul float %7, %11
  %13 = tail call float @llvm.fmuladd.f32(float %6, float %10, float %12)
  %14 = tail call float @llvm.fabs.f32(float %13)
  %15 = sitofp i32 %3 to float
  %16 = tail call float @llvm.fabs.f32(float %9)
  %17 = tail call float @llvm.fabs.f32(float %10)
  %18 = tail call float @llvm.maxnum.f32(float %16, float %17)
  %19 = fmul float %18, %15
  %20 = fcmp olt float %14, %19
  br i1 %20, label %21, label %43

21:                                               ; preds = %4
  %22 = fcmp ult float %16, %17
  br i1 %22, label %33, label %23

23:                                               ; preds = %21
  %24 = fcmp ogt float %9, 0.000000e+00
  br i1 %24, label %25, label %29

25:                                               ; preds = %23
  %26 = fcmp ole float %.sroa.020.0.vec.extract, %.sroa.033.0.vec.extract
  %27 = fcmp ole float %.sroa.033.0.vec.extract, %.sroa.0.0.vec.extract
  %28 = select i1 %26, i1 %27, i1 false
  br label %43

29:                                               ; preds = %23
  %30 = fcmp ole float %.sroa.0.0.vec.extract, %.sroa.033.0.vec.extract
  %31 = fcmp ole float %.sroa.033.0.vec.extract, %.sroa.020.0.vec.extract
  %32 = select i1 %30, i1 %31, i1 false
  br label %43

33:                                               ; preds = %21
  %34 = fcmp ogt float %10, 0.000000e+00
  br i1 %34, label %35, label %39

35:                                               ; preds = %33
  %36 = fcmp ole float %.sroa.020.4.vec.extract, %.sroa.033.4.vec.extract
  %37 = fcmp ole float %.sroa.033.4.vec.extract, %.sroa.0.4.vec.extract
  %38 = select i1 %36, i1 %37, i1 false
  br label %43

39:                                               ; preds = %33
  %40 = fcmp ole float %.sroa.0.4.vec.extract, %.sroa.033.4.vec.extract
  %41 = fcmp ole float %.sroa.033.4.vec.extract, %.sroa.020.4.vec.extract
  %42 = select i1 %40, i1 %41, i1 false
  br label %43

43:                                               ; preds = %35, %39, %25, %29, %4
  %.0.shrunk = phi i1 [ false, %4 ], [ %28, %25 ], [ %32, %29 ], [ %38, %35 ], [ %42, %39 ]
  ret i1 %.0.shrunk
}